target datalayout = "e-m:e-p270:32:32-p271:32:32-p272:64:64-i64:64-i128:128-f80:128-n8:16:32:64-S128"
target triple = "x86_64-pc-linux-gnu"

%struct.tree_desc = type { ptr, ptr, %struct.name_entry, i32, i32 }
%struct.name_entry = type { %struct.object_id, ptr, i32, i32 }
%struct.object_id = type { [32 x i8], i32 }

@.str.2 = private unnamed_addr constant [25 x i8] c"unable to read tree (%s)\00", align 1
@.str.3 = private unnamed_addr constant [17 x i8] c"%s is not a tree\00", align 1
@.str.4 = private unnamed_addr constant [5 x i8] c"%s%s\00", align 1
@.str.5 = private unnamed_addr constant [6 x i8] c"%s%s/\00", align 1

; Function Attrs: inlinehint nounwind uwtable
define internal ptr @tree_entry_extract(ptr noundef %0, ptr noundef %1, ptr noundef %2) #3 {
  %4 = alloca ptr, align 8
  %5 = alloca ptr, align 8
  %6 = alloca ptr, align 8
  store ptr %0, ptr %4, align 8, !tbaa !53
  store ptr %1, ptr %5, align 8, !tbaa !25
  store ptr %2, ptr %6, align 8, !tbaa !60
  %7 = load ptr, ptr %4, align 8, !tbaa !53
  %8 = getelementptr inbounds nuw %struct.tree_desc, ptr %7, i32 0, i32 2
  %9 = getelementptr inbounds nuw %struct.name_entry, ptr %8, i32 0, i32 1
  %10 = load ptr, ptr %9, align 8, !tbaa !34
  %11 = load ptr, ptr %5, align 8, !tbaa !25
  store ptr %10, ptr %11, align 8, !tbaa !13
  %12 = load ptr, ptr %4, align 8, !tbaa !53
  %13 = getelementptr inbounds nuw %struct.tree_desc, ptr %12, i32 0, i32 2
  %14 = getelementptr inbounds nuw %struct.name_entry, ptr %13, i32 0, i32 3
  %15 = load i32, ptr %14, align 4, !tbaa !22
  %16 = trunc i32 %15 to i16
  %17 = load ptr, ptr %6, align 8, !tbaa !60
  store i16 %16, ptr %17, align 2, !tbaa !27
  %18 = load ptr, ptr %4, align 8, !tbaa !53
  %19 = getelementptr inbounds nuw %struct.tree_desc, ptr %18, i32 0, i32 2
  %20 = getelementptr inbounds nuw %struct.name_entry, ptr %19, i32 0, i32 0
  ret ptr %20
}

; Function Attrs: nounwind uwtable
define internal ptr @fill_tree_desc_strict(ptr noundef %0, ptr noundef %1, ptr noundef %2) #0 {
  %4 = alloca ptr, align 8
  %5 = alloca ptr, align 8
  %6 = alloca ptr, align 8
  %7 = alloca ptr, align 8
  %8 = alloca i32, align 4
  %9 = alloca i64, align 8
  store ptr %0, ptr %4, align 8, !tbaa !4
  store ptr %1, ptr %5, align 8, !tbaa !53
  store ptr %2, ptr %6, align 8, !tbaa !9
  call void @llvm.lifetime.start.p0(i64 8, ptr %7) #9
  call void @llvm.lifetime.start.p0(i64 4, ptr %8) #9
  call void @llvm.lifetime.start.p0(i64 8, ptr %9) #9
  %10 = load ptr, ptr %4, align 8, !tbaa !4
  %11 = load ptr, ptr %6, align 8, !tbaa !9
  %12 = call ptr @repo_read_object_file(ptr noundef %10, ptr noundef %11, ptr noundef %8, ptr noundef %9)
  store ptr %12, ptr %7, align 8, !tbaa !16
  %13 = load ptr, ptr %7, align 8, !tbaa !16
  %14 = icmp ne ptr %13, null
  br i1 %14, label %18, label %15

15:                                               ; preds = %3
  %16 = load ptr, ptr %6, align 8, !tbaa !9
  %17 = call ptr @oid_to_hex(ptr noundef %16)
  call void (ptr, ...) @die(ptr noundef @.str.2, ptr noundef %17) #10
  unreachable

18:                                               ; preds = %3
  %19 = load i32, ptr %8, align 4, !tbaa !11
  %20 = icmp ne i32 %19, 2
  br i1 %20, label %21, label %24

21:                                               ; preds = %18
  %22 = load ptr, ptr %6, align 8, !tbaa !9
  %23 = call ptr @oid_to_hex(ptr noundef %22)
  call void (ptr, ...) @die(ptr noundef @.str.3, ptr noundef %23) #10
  unreachable

24:                                               ; preds = %18
  %25 = load ptr, ptr %5, align 8, !tbaa !53
  %26 = load ptr, ptr %6, align 8, !tbaa !9
  %27 = load ptr, ptr %7, align 8, !tbaa !16
  %28 = load i64, ptr %9, align 8, !tbaa !32
  call void @init_tree_desc(ptr noundef %25, ptr noundef %26, ptr noundef %27, i64 noundef %28)
  %29 = load ptr, ptr %7, align 8, !tbaa !16
  call void @llvm.lifetime.end.p0(i64 8, ptr %9) #9
  call void @llvm.lifetime.end.p0(i64 4, ptr %8) #9
  call void @llvm.lifetime.end.p0(i64 8, ptr %7) #9
  ret ptr %29
}

; Function Attrs: nounwind uwtable
define internal void @match_trees(ptr noundef %0, ptr noundef %1, ptr noundef %2, ptr noundef %3, ptr noundef %4, ptr noundef %5, i32 noundef %6) #0 {
  %8 = alloca ptr, align 8
  %9 = alloca ptr, align 8
  %10 = alloca ptr, align 8
  %11 = alloca ptr, align 8
  %12 = alloca ptr, align 8
  %13 = alloca ptr, align 8
  %14 = alloca i32, align 4
  %15 = alloca %struct.tree_desc, align 8
  %16 = alloca ptr, align 8
  %17 = alloca ptr, align 8
  %18 = alloca ptr, align 8
  %19 = alloca i16, align 2
  %20 = alloca i32, align 4
  %21 = alloca ptr, align 8
  store ptr %0, ptr %8, align 8, !tbaa !4
  store ptr %1, ptr %9, align 8, !tbaa !9
  store ptr %2, ptr %10, align 8, !tbaa !9
  store ptr %3, ptr %11, align 8, !tbaa !23
  store ptr %4, ptr %12, align 8, !tbaa !25
  store ptr %5, ptr %13, align 8, !tbaa !13
  store i32 %6, ptr %14, align 4, !tbaa !11
  call void @llvm.lifetime.start.p0(i64 80, ptr %15) #9
  call void @llvm.lifetime.start.p0(i64 8, ptr %16) #9
  %22 = load ptr, ptr %8, align 8, !tbaa !4
  %23 = load ptr, ptr %9, align 8, !tbaa !9
  %24 = call ptr @fill_tree_desc_strict(ptr noundef %22, ptr noundef %15, ptr noundef %23)
  store ptr %24, ptr %16, align 8, !tbaa !16
  br label %25

25:                                               ; preds = %71, %7
  %26 = getelementptr inbounds nuw %struct.tree_desc, ptr %15, i32 0, i32 3
  %27 = load i32, ptr %26, align 8, !tbaa !17
  %28 = icmp ne i32 %27, 0
  br i1 %28, label %29, label %72

29:                                               ; preds = %25
  call void @llvm.lifetime.start.p0(i64 8, ptr %17) #9
  call void @llvm.lifetime.start.p0(i64 8, ptr %18) #9
  call void @llvm.lifetime.start.p0(i64 2, ptr %19) #9
  call void @llvm.lifetime.start.p0(i64 4, ptr %20) #9
  %30 = call ptr @tree_entry_extract(ptr noundef %15, ptr noundef %17, ptr noundef %19)
  store ptr %30, ptr %18, align 8, !tbaa !9
  %31 = load i16, ptr %19, align 2, !tbaa !27
  %32 = zext i16 %31 to i32
  %33 = and i32 %32, 61440
  %34 = icmp eq i32 %33, 16384
  br i1 %34, label %36, label %35

35:                                               ; preds = %29
  br label %71

36:                                               ; preds = %29
  %37 = load ptr, ptr %8, align 8, !tbaa !4
  %38 = load ptr, ptr %18, align 8, !tbaa !9
  %39 = load ptr, ptr %10, align 8, !tbaa !9
  %40 = call i32 @score_trees(ptr noundef %37, ptr noundef %38, ptr noundef %39)
  store i32 %40, ptr %20, align 4, !tbaa !11
  %41 = load ptr, ptr %11, align 8, !tbaa !23
  %42 = load i32, ptr %41, align 4, !tbaa !11
  %43 = load i32, ptr %20, align 4, !tbaa !11
  %44 = icmp slt i32 %42, %43
  br i1 %44, label %45, label %54

45:                                               ; preds = %36
  %46 = load ptr, ptr %12, align 8, !tbaa !25
  %47 = load ptr, ptr %46, align 8, !tbaa !13
  call void @free(ptr noundef %47) #9
  %48 = load ptr, ptr %13, align 8, !tbaa !13
  %49 = load ptr, ptr %17, align 8, !tbaa !13
  %50 = call ptr (ptr, ...) @xstrfmt(ptr noundef @.str.4, ptr noundef %48, ptr noundef %49)
  %51 = load ptr, ptr %12, align 8, !tbaa !25
  store ptr %50, ptr %51, align 8, !tbaa !13
  %52 = load i32, ptr %20, align 4, !tbaa !11
  %53 = load ptr, ptr %11, align 8, !tbaa !23
  store i32 %52, ptr %53, align 4, !tbaa !11
  br label %54

54:                                               ; preds = %45, %36
  %55 = load i32, ptr %14, align 4, !tbaa !11
  %56 = icmp ne i32 %55, 0
  br i1 %56, label %57, label %70

57:                                               ; preds = %54
  call void @llvm.lifetime.start.p0(i64 8, ptr %21) #9
  %58 = load ptr, ptr %13, align 8, !tbaa !13
  %59 = load ptr, ptr %17, align 8, !tbaa !13
  %60 = call ptr (ptr, ...) @xstrfmt(ptr noundef @.str.5, ptr noundef %58, ptr noundef %59)
  store ptr %60, ptr %21, align 8, !tbaa !13
  %61 = load ptr, ptr %8, align 8, !tbaa !4
  %62 = load ptr, ptr %18, align 8, !tbaa !9
  %63 = load ptr, ptr %10, align 8, !tbaa !9
  %64 = load ptr, ptr %11, align 8, !tbaa !23
  %65 = load ptr, ptr %12, align 8, !tbaa !25
  %66 = load ptr, ptr %21, align 8, !tbaa !13
  %67 = load i32, ptr %14, align 4, !tbaa !11
  %68 = sub nsw i32 %67, 1
  call void @match_trees(ptr noundef %61, ptr noundef %62, ptr noundef %63, ptr noundef %64, ptr noundef %65, ptr noundef %66, i32 noundef %68)
  %69 = load ptr, ptr %21, align 8, !tbaa !13
  call void @free(ptr noundef %69) #9
  call void @llvm.lifetime.end.p0(i64 8, ptr %21) #9
  br label %70

70:                                               ; preds = %57, %54
  br label %71

71:                                               ; preds = %70, %35
  call void @update_tree_entry(ptr noundef %15)
  call void @llvm.lifetime.end.p0(i64 4, ptr %20) #9
  call void @llvm.lifetime.end.p0(i64 2, ptr %19) #9
  call void @llvm.lifetime.end.p0(i64 8, ptr %18) #9
  call void @llvm.lifetime.end.p0(i64 8, ptr %17) #9
  br label %25, !llvm.loop !29

72:                                               ; preds = %25
  %73 = load ptr, ptr %16, align 8, !tbaa !16
  call void @free(ptr noundef %73) #9
  call void @llvm.lifetime.end.p0(i64 8, ptr %16) #9
  call void @llvm.lifetime.end.p0(i64 80, ptr %15) #9
  ret void
}