; Function Attrs: nounwind uwtable
define internal fastcc void @match_trees(ptr noundef %0, ptr noundef %1, ptr noundef %2, ptr noundef nonnull captures(none) %3, ptr noundef nonnull captures(none) %4, ptr noundef %5, i32 noundef %6) unnamed_addr #0 {
  %8 = alloca i32, align 4
  %9 = alloca i64, align 8
  %10 = alloca %struct.tree_desc, align 8
  call void @llvm.lifetime.start.p0(i64 80, ptr nonnull %10) #11
  call void @llvm.lifetime.start.p0(i64 4, ptr nonnull %8) #11
  call void @llvm.lifetime.start.p0(i64 8, ptr nonnull %9) #11
  %11 = call ptr @repo_read_object_file(ptr noundef %0, ptr noundef %1, ptr noundef nonnull %8, ptr noundef nonnull %9) #11
  %.not.i = icmp eq ptr %11, null
  br i1 %.not.i, label %12, label %14

12:                                               ; preds = %7
  %13 = call ptr @oid_to_hex(ptr noundef %1) #11
  call void (ptr, ...) @die(ptr noundef nonnull @.str.2, ptr noundef %13) #12
  unreachable

14:                                               ; preds = %7
  %15 = load i32, ptr %8, align 4, !tbaa !4
  %.not9.i = icmp eq i32 %15, 2
  br i1 %.not9.i, label %fill_tree_desc_strict.exit, label %16

16:                                               ; preds = %14
  %17 = call ptr @oid_to_hex(ptr noundef %1) #11
  call void (ptr, ...) @die(ptr noundef nonnull @.str.3, ptr noundef %17) #12
  unreachable

fill_tree_desc_strict.exit:                       ; preds = %14
  %18 = load i64, ptr %9, align 8, !tbaa !14
  call void @init_tree_desc(ptr noundef nonnull %10, ptr noundef %1, ptr noundef nonnull %11, i64 noundef %18) #11
  call void @llvm.lifetime.end.p0(i64 8, ptr nonnull %9) #11
  call void @llvm.lifetime.end.p0(i64 4, ptr nonnull %8) #11
  %19 = getelementptr inbounds nuw i8, ptr %10, i64 72
  %20 = load i32, ptr %19, align 8, !tbaa !16
  %.not25 = icmp eq i32 %20, 0
  br i1 %.not25, label %._crit_edge, label %.lr.ph

.lr.ph:                                           ; preds = %fill_tree_desc_strict.exit
  %21 = getelementptr inbounds nuw i8, ptr %10, i64 16
  %22 = getelementptr inbounds nuw i8, ptr %10, i64 56
  %23 = getelementptr inbounds nuw i8, ptr %10, i64 68
  %.not23 = icmp eq i32 %6, 0
  %24 = add nsw i32 %6, -1
  br i1 %.not23, label %.lr.ph.split.us, label %.lr.ph.split

.lr.ph.split.us:                                  ; preds = %.lr.ph, %36
  %25 = load ptr, ptr %22, align 8, !tbaa !24
  %26 = load i32, ptr %23, align 4, !tbaa !23
  %27 = and i32 %26, 61440
  %28 = icmp eq i32 %27, 16384
  br i1 %28, label %29, label %36

29:                                               ; preds = %.lr.ph.split.us
  %30 = call fastcc i32 @score_trees(ptr noundef %0, ptr noundef nonnull %21, ptr noundef %2)
  %31 = load i32, ptr %3, align 4, !tbaa !4
  %32 = icmp slt i32 %31, %30
  br i1 %32, label %33, label %36

33:                                               ; preds = %29
  %34 = load ptr, ptr %4, align 8, !tbaa !8
  call void @free(ptr noundef %34) #11
  %35 = call ptr (ptr, ...) @xstrfmt(ptr noundef nonnull @.str.4, ptr noundef %5, ptr noundef %25) #11
  store ptr %35, ptr %4, align 8, !tbaa !8
  store i32 %30, ptr %3, align 4, !tbaa !4
  br label %36

36:                                               ; preds = %29, %33, %.lr.ph.split.us
  call void @update_tree_entry(ptr noundef nonnull %10) #11
  %37 = load i32, ptr %19, align 8, !tbaa !16
  %.not.us = icmp eq i32 %37, 0
  br i1 %.not.us, label %._crit_edge, label %.lr.ph.split.us, !llvm.loop !25

.lr.ph.split:                                     ; preds = %.lr.ph, %51
  %38 = load ptr, ptr %22, align 8, !tbaa !24
  %39 = load i32, ptr %23, align 4, !tbaa !23
  %40 = and i32 %39, 61440
  %41 = icmp eq i32 %40, 16384
  br i1 %41, label %42, label %51

42:                                               ; preds = %.lr.ph.split
  %43 = call fastcc i32 @score_trees(ptr noundef %0, ptr noundef nonnull %21, ptr noundef %2)
  %44 = load i32, ptr %3, align 4, !tbaa !4
  %45 = icmp slt i32 %44, %43
  br i1 %45, label %46, label %49

46:                                               ; preds = %42
  %47 = load ptr, ptr %4, align 8, !tbaa !8
  call void @free(ptr noundef %47) #11
  %48 = call ptr (ptr, ...) @xstrfmt(ptr noundef nonnull @.str.4, ptr noundef %5, ptr noundef %38) #11
  store ptr %48, ptr %4, align 8, !tbaa !8
  store i32 %43, ptr %3, align 4, !tbaa !4
  br label %49

49:                                               ; preds = %46, %42
  %50 = call ptr (ptr, ...) @xstrfmt(ptr noundef nonnull @.str.5, ptr noundef %5, ptr noundef %38) #11
  call fastcc void @match_trees(ptr noundef %0, ptr noundef nonnull %21, ptr noundef %2, ptr noundef %3, ptr noundef %4, ptr noundef %50, i32 noundef %24)
  call void @free(ptr noundef %50) #11
  br label %51

51:                                               ; preds = %49, %.lr.ph.split
  call void @update_tree_entry(ptr noundef nonnull %10) #11
  %52 = load i32, ptr %19, align 8, !tbaa !16
  %.not = icmp eq i32 %52, 0
  br i1 %.not, label %._crit_edge, label %.lr.ph.split, !llvm.loop !25

._crit_edge:                                      ; preds = %51, %36, %fill_tree_desc_strict.exit
  call void @free(ptr noundef %11) #11
  call void @llvm.lifetime.end.p0(i64 80, ptr nonnull %10) #11
  ret void
}